target datalayout = "e-m:e-p270:32:32-p271:32:32-p272:64:64-i64:64-i128:128-f80:128-n8:16:32:64-S128"
target triple = "x86_64-pc-linux-gnu"

%struct.GetByteContext = type { ptr, ptr, ptr }
%struct.ArithCoder = type { i32, i32, i32, i32, %union.anon.3, ptr, ptr }
%union.anon.3 = type { ptr }

; Function Attrs: alwaysinline nounwind uwtable
define internal i32 @bytestream2_tell(ptr noundef %0) #5 {
  %2 = alloca ptr, align 8
  store ptr %0, ptr %2, align 8, !tbaa !150
  %3 = load ptr, ptr %2, align 8, !tbaa !150
  %4 = getelementptr inbounds nuw %struct.GetByteContext, ptr %3, i32 0, i32 0
  %5 = load ptr, ptr %4, align 8, !tbaa !152
  %6 = load ptr, ptr %2, align 8, !tbaa !150
  %7 = getelementptr inbounds nuw %struct.GetByteContext, ptr %6, i32 0, i32 2
  %8 = load ptr, ptr %7, align 8, !tbaa !154
  %9 = ptrtoint ptr %5 to i64
  %10 = ptrtoint ptr %8 to i64
  %11 = sub i64 %9, %10
  %12 = trunc i64 %11 to i32
  ret i32 %12
}

; Function Attrs: nounwind uwtable
define internal i32 @arith2_get_consumed_bytes(ptr noundef %0) #1 {
  %2 = alloca ptr, align 8
  %3 = alloca i32, align 4
  %4 = alloca i32, align 4
  %5 = alloca i32, align 4
  store ptr %0, ptr %2, align 8, !tbaa !156
  call void @llvm.lifetime.start.p0(i64 4, ptr %3) #10
  %6 = load ptr, ptr %2, align 8, !tbaa !156
  %7 = getelementptr inbounds nuw %struct.ArithCoder, ptr %6, i32 0, i32 1
  %8 = load i32, ptr %7, align 4, !tbaa !160
  %9 = ashr i32 %8, 16
  %10 = load ptr, ptr %2, align 8, !tbaa !156
  %11 = getelementptr inbounds nuw %struct.ArithCoder, ptr %10, i32 0, i32 0
  %12 = load i32, ptr %11, align 8, !tbaa !158
  %13 = ashr i32 %12, 16
  %14 = sub nsw i32 %9, %13
  store i32 %14, ptr %3, align 4, !tbaa !35
  call void @llvm.lifetime.start.p0(i64 4, ptr %4) #10
  %15 = load ptr, ptr %2, align 8, !tbaa !156
  %16 = getelementptr inbounds nuw %struct.ArithCoder, ptr %15, i32 0, i32 4
  %17 = load ptr, ptr %16, align 8, !tbaa !103
  %18 = call i32 @bytestream2_tell(ptr noundef %17)
  %19 = sub nsw i32 %18, 3
  %20 = shl i32 %19, 3
  store i32 %20, ptr %4, align 4, !tbaa !35
  call void @llvm.lifetime.start.p0(i64 4, ptr %5) #10
  store i32 1, ptr %5, align 4, !tbaa !35
  br label %21

21:                                               ; preds = %26, %1
  %22 = load i32, ptr %3, align 4, !tbaa !35
  %23 = and i32 %22, 128
  %24 = icmp ne i32 %23, 0
  %25 = xor i1 %24, true
  br i1 %25, label %26, label %31

26:                                               ; preds = %21
  %27 = load i32, ptr %5, align 4, !tbaa !35
  %28 = add nsw i32 %27, 1
  store i32 %28, ptr %5, align 4, !tbaa !35
  %29 = load i32, ptr %3, align 4, !tbaa !35
  %30 = shl i32 %29, 1
  store i32 %30, ptr %3, align 4, !tbaa !35
  br label %21, !llvm.loop !165

31:                                               ; preds = %21
  %32 = load i32, ptr %5, align 4, !tbaa !35
  %33 = load i32, ptr %4, align 4, !tbaa !35
  %34 = add nsw i32 %32, %33
  %35 = add nsw i32 %34, 7
  %36 = ashr i32 %35, 3
  %37 = load ptr, ptr %2, align 8, !tbaa !156
  %38 = getelementptr inbounds nuw %struct.ArithCoder, ptr %37, i32 0, i32 0
  %39 = load i32, ptr %38, align 8, !tbaa !158
  %40 = ashr i32 %39, 16
  %41 = add nsw i32 %40, 1
  %42 = load ptr, ptr %2, align 8, !tbaa !156
  %43 = getelementptr inbounds nuw %struct.ArithCoder, ptr %42, i32 0, i32 1
  %44 = load i32, ptr %43, align 4, !tbaa !160
  %45 = ashr i32 %44, 16
  %46 = icmp eq i32 %41, %45
  %47 = zext i1 %46 to i32
  %48 = add nsw i32 %36, %47
  call void @llvm.lifetime.end.p0(i64 4, ptr %5) #10
  call void @llvm.lifetime.end.p0(i64 4, ptr %4) #10
  call void @llvm.lifetime.end.p0(i64 4, ptr %3) #10
  ret i32 %48
}